target datalayout = "e-m:e-p270:32:32-p271:32:32-p272:64:64-i64:64-i128:128-f80:128-n8:16:32:64-S128"
target triple = "x86_64-pc-linux-gnu"

%struct.H5FD_file_image_callbacks_t = type { ptr, ptr, ptr, ptr, ptr, ptr, ptr }
%union.anon.0 = type { ptr }
%struct.H5LT_file_image_ud_t = type { ptr, i64, ptr, i64, i32, ptr, i64, i32, i32, i32 }

@H5_libinit_g = external global i8, align 1
@H5_libterm_g = external global i8, align 1
@H5LTopen_file_image.file_name_counter = internal global i64 0, align 8
@__const.H5LTopen_file_image.callbacks = private unnamed_addr constant %struct.H5FD_file_image_callbacks_t { ptr @image_malloc, ptr @image_memcpy, ptr @image_realloc, ptr @image_free, ptr @udata_copy, ptr @udata_free, ptr null }, align 8
@H5P_CLS_FILE_ACCESS_ID_g = external global i64, align 8
@.str = private unnamed_addr constant [15 x i8] c"file_image_%ld\00", align 1

; Function Attrs: nounwind uwtable
define internal i32 @udata_free(ptr noundef %0) #0 {
  %2 = alloca i32, align 4
  %3 = alloca ptr, align 8
  %4 = alloca ptr, align 8
  %5 = alloca i32, align 4
  store ptr %0, ptr %3, align 8, !tbaa !14
  call void @llvm.lifetime.start.p0(i64 8, ptr %4) #11
  %6 = load ptr, ptr %3, align 8, !tbaa !14
  store ptr %6, ptr %4, align 8, !tbaa !14
  %7 = load ptr, ptr %4, align 8, !tbaa !14
  %8 = getelementptr inbounds nuw %struct.H5LT_file_image_ud_t, ptr %7, i32 0, i32 8
  %9 = load i32, ptr %8, align 4, !tbaa !39
  %10 = and i32 %9, 2
  %11 = icmp ne i32 %10, 0
  br i1 %11, label %13, label %12

12:                                               ; preds = %1
  br label %31

13:                                               ; preds = %1
  %14 = load ptr, ptr %4, align 8, !tbaa !14
  %15 = getelementptr inbounds nuw %struct.H5LT_file_image_ud_t, ptr %14, i32 0, i32 9
  %16 = load i32, ptr %15, align 8, !tbaa !40
  %17 = icmp eq i32 %16, 0
  br i1 %17, label %18, label %19

18:                                               ; preds = %13
  br label %31

19:                                               ; preds = %13
  %20 = load ptr, ptr %4, align 8, !tbaa !14
  %21 = getelementptr inbounds nuw %struct.H5LT_file_image_ud_t, ptr %20, i32 0, i32 9
  %22 = load i32, ptr %21, align 8, !tbaa !40
  %23 = add nsw i32 %22, -1
  store i32 %23, ptr %21, align 8, !tbaa !40
  %24 = load ptr, ptr %4, align 8, !tbaa !14
  %25 = getelementptr inbounds nuw %struct.H5LT_file_image_ud_t, ptr %24, i32 0, i32 9
  %26 = load i32, ptr %25, align 8, !tbaa !40
  %27 = icmp eq i32 %26, 0
  br i1 %27, label %28, label %30

28:                                               ; preds = %19
  %29 = load ptr, ptr %4, align 8, !tbaa !14
  call void @free(ptr noundef %29) #11
  br label %30

30:                                               ; preds = %28, %19
  store i32 0, ptr %2, align 4
  store i32 1, ptr %5, align 4
  br label %32

31:                                               ; preds = %18, %12
  store i32 -1, ptr %2, align 4
  store i32 1, ptr %5, align 4
  br label %32

32:                                               ; preds = %31, %30
  call void @llvm.lifetime.end.p0(i64 8, ptr %4) #11
  %33 = load i32, ptr %2, align 4
  ret i32 %33
}

; Function Attrs: nounwind uwtable
define i64 @H5LTopen_file_image(ptr noundef %0, i64 noundef %1, i32 noundef %2) #0 {
  %4 = alloca i64, align 8
  %5 = alloca ptr, align 8
  %6 = alloca i64, align 8
  %7 = alloca i32, align 4
  %8 = alloca ptr, align 8
  %9 = alloca i64, align 8
  %10 = alloca i64, align 8
  %11 = alloca i32, align 4
  %12 = alloca [64 x i8], align 16
  %13 = alloca i64, align 8
  %14 = alloca i64, align 8
  %15 = alloca double, align 8
  %16 = alloca %struct.H5FD_file_image_callbacks_t, align 8
  %17 = alloca i32, align 4
  %18 = alloca i32, align 4
  %19 = alloca %union.anon.0, align 8
  %20 = alloca ptr, align 8
  store ptr %0, ptr %5, align 8, !tbaa !14
  store i64 %1, ptr %6, align 8, !tbaa !3
  store i32 %2, ptr %7, align 4, !tbaa !10
  call void @llvm.lifetime.start.p0(i64 8, ptr %8) #11
  store ptr null, ptr %8, align 8, !tbaa !14
  call void @llvm.lifetime.start.p0(i64 8, ptr %9) #11
  store i64 -1, ptr %9, align 8, !tbaa !3
  call void @llvm.lifetime.start.p0(i64 8, ptr %10) #11
  store i64 -1, ptr %10, align 8, !tbaa !3
  call void @llvm.lifetime.start.p0(i64 4, ptr %11) #11
  call void @llvm.lifetime.start.p0(i64 64, ptr %12) #11
  call void @llvm.lifetime.start.p0(i64 8, ptr %13) #11
  call void @llvm.lifetime.start.p0(i64 8, ptr %14) #11
  store i64 65536, ptr %14, align 8, !tbaa !3
  call void @llvm.lifetime.start.p0(i64 8, ptr %15) #11
  store double 1.000000e-01, ptr %15, align 8, !tbaa !28
  call void @llvm.lifetime.start.p0(i64 56, ptr %16) #11
  call void @llvm.memcpy.p0.p0.i64(ptr align 8 %16, ptr align 8 @__const.H5LTopen_file_image.callbacks, i64 56, i1 false)
  %21 = load ptr, ptr %5, align 8, !tbaa !14
  %22 = icmp eq ptr %21, null
  br i1 %22, label %23, label %24

23:                                               ; preds = %3
  br label %150

24:                                               ; preds = %3
  %25 = load i64, ptr %6, align 8, !tbaa !3
  %26 = icmp eq i64 %25, 0
  br i1 %26, label %27, label %28

27:                                               ; preds = %24
  br label %150

28:                                               ; preds = %24
  %29 = load i32, ptr %7, align 4, !tbaa !10
  %30 = and i32 %29, -8
  %31 = icmp ne i32 %30, 0
  br i1 %31, label %32, label %33

32:                                               ; preds = %28
  br label %150

33:                                               ; preds = %28
  %34 = load i8, ptr @H5_libinit_g, align 1, !tbaa !16, !range !18, !noundef !19
  %35 = trunc i8 %34 to i1
  br i1 %35, label %40, label %36

36:                                               ; preds = %33
  %37 = load i8, ptr @H5_libterm_g, align 1, !tbaa !16, !range !18, !noundef !19
  %38 = trunc i8 %37 to i1
  %39 = xor i1 %38, true
  br label %40

40:                                               ; preds = %36, %33
  %41 = phi i1 [ false, %33 ], [ %39, %36 ]
  %42 = xor i1 %41, true
  %43 = xor i1 %42, true
  %44 = zext i1 %43 to i32
  %45 = sext i32 %44 to i64
  %46 = call i64 @llvm.expect.i64(i64 %45, i64 0)
  %47 = icmp ne i64 %46, 0
  br i1 %47, label %48, label %50

48:                                               ; preds = %40
  %49 = call i32 @H5open()
  br label %51

50:                                               ; preds = %40
  br label %51

51:                                               ; preds = %50, %48
  %52 = load i64, ptr @H5P_CLS_FILE_ACCESS_ID_g, align 8, !tbaa !3
  %53 = call i64 @H5Pcreate(i64 noundef %52)
  store i64 %53, ptr %9, align 8, !tbaa !3
  %54 = icmp slt i64 %53, 0
  br i1 %54, label %55, label %56

55:                                               ; preds = %51
  br label %150

56:                                               ; preds = %51
  %57 = load double, ptr %15, align 8, !tbaa !28
  %58 = load i64, ptr %6, align 8, !tbaa !3
  %59 = uitofp i64 %58 to double
  %60 = fmul double %57, %59
  %61 = fptoui double %60 to i64
  %62 = load i64, ptr %14, align 8, !tbaa !3
  %63 = icmp ugt i64 %61, %62
  br i1 %63, label %64, label %70

64:                                               ; preds = %56
  %65 = load double, ptr %15, align 8, !tbaa !28
  %66 = load i64, ptr %6, align 8, !tbaa !3
  %67 = uitofp i64 %66 to double
  %68 = fmul double %65, %67
  %69 = fptoui double %68 to i64
  store i64 %69, ptr %13, align 8, !tbaa !3
  br label %72

70:                                               ; preds = %56
  %71 = load i64, ptr %14, align 8, !tbaa !3
  store i64 %71, ptr %13, align 8, !tbaa !3
  br label %72

72:                                               ; preds = %70, %64
  %73 = load i64, ptr %9, align 8, !tbaa !3
  %74 = load i64, ptr %13, align 8, !tbaa !3
  %75 = call i32 @H5Pset_fapl_core(i64 noundef %73, i64 noundef %74, i1 noundef zeroext false)
  %76 = icmp slt i32 %75, 0
  br i1 %76, label %77, label %78

77:                                               ; preds = %72
  br label %150

78:                                               ; preds = %72
  %79 = load i32, ptr %7, align 4, !tbaa !10
  %80 = and i32 %79, 2
  %81 = icmp ne i32 %80, 0
  br i1 %81, label %82, label %119

82:                                               ; preds = %78
  %83 = call noalias ptr @malloc(i64 noundef 72) #13
  store ptr %83, ptr %8, align 8, !tbaa !14
  %84 = icmp eq ptr null, %83
  br i1 %84, label %85, label %86

85:                                               ; preds = %82
  br label %150

86:                                               ; preds = %82
  %87 = load ptr, ptr %5, align 8, !tbaa !14
  %88 = load ptr, ptr %8, align 8, !tbaa !14
  %89 = getelementptr inbounds nuw %struct.H5LT_file_image_ud_t, ptr %88, i32 0, i32 0
  store ptr %87, ptr %89, align 8, !tbaa !30
  %90 = load i64, ptr %6, align 8, !tbaa !3
  %91 = load ptr, ptr %8, align 8, !tbaa !14
  %92 = getelementptr inbounds nuw %struct.H5LT_file_image_ud_t, ptr %91, i32 0, i32 1
  store i64 %90, ptr %92, align 8, !tbaa !32
  %93 = load ptr, ptr %8, align 8, !tbaa !14
  %94 = getelementptr inbounds nuw %struct.H5LT_file_image_ud_t, ptr %93, i32 0, i32 2
  store ptr null, ptr %94, align 8, !tbaa !33
  %95 = load ptr, ptr %8, align 8, !tbaa !14
  %96 = getelementptr inbounds nuw %struct.H5LT_file_image_ud_t, ptr %95, i32 0, i32 3
  store i64 0, ptr %96, align 8, !tbaa !34
  %97 = load ptr, ptr %8, align 8, !tbaa !14
  %98 = getelementptr inbounds nuw %struct.H5LT_file_image_ud_t, ptr %97, i32 0, i32 4
  store i32 0, ptr %98, align 8, !tbaa !35
  %99 = load ptr, ptr %8, align 8, !tbaa !14
  %100 = getelementptr inbounds nuw %struct.H5LT_file_image_ud_t, ptr %99, i32 0, i32 5
  store ptr null, ptr %100, align 8, !tbaa !36
  %101 = load ptr, ptr %8, align 8, !tbaa !14
  %102 = getelementptr inbounds nuw %struct.H5LT_file_image_ud_t, ptr %101, i32 0, i32 6
  store i64 0, ptr %102, align 8, !tbaa !37
  %103 = load ptr, ptr %8, align 8, !tbaa !14
  %104 = getelementptr inbounds nuw %struct.H5LT_file_image_ud_t, ptr %103, i32 0, i32 7
  store i32 0, ptr %104, align 8, !tbaa !38
  %105 = load i32, ptr %7, align 4, !tbaa !10
  %106 = load ptr, ptr %8, align 8, !tbaa !14
  %107 = getelementptr inbounds nuw %struct.H5LT_file_image_ud_t, ptr %106, i32 0, i32 8
  store i32 %105, ptr %107, align 4, !tbaa !39
  %108 = load ptr, ptr %8, align 8, !tbaa !14
  %109 = getelementptr inbounds nuw %struct.H5LT_file_image_ud_t, ptr %108, i32 0, i32 9
  store i32 1, ptr %109, align 8, !tbaa !40
  %110 = load ptr, ptr %8, align 8, !tbaa !14
  %111 = getelementptr inbounds nuw %struct.H5FD_file_image_callbacks_t, ptr %16, i32 0, i32 6
  store ptr %110, ptr %111, align 8, !tbaa !41
  %112 = load i64, ptr %9, align 8, !tbaa !3
  %113 = call i32 @H5Pset_file_image_callbacks(i64 noundef %112, ptr noundef %16)
  %114 = icmp slt i32 %113, 0
  br i1 %114, label %115, label %118

115:                                              ; preds = %86
  %116 = load ptr, ptr %8, align 8, !tbaa !14
  %117 = call i32 @udata_free(ptr noundef %116)
  br label %150

118:                                              ; preds = %86
  br label %119

119:                                              ; preds = %118, %78
  %120 = load i64, ptr %9, align 8, !tbaa !3
  %121 = load ptr, ptr %5, align 8, !tbaa !14
  %122 = load i64, ptr %6, align 8, !tbaa !3
  %123 = call i32 @H5Pset_file_image(i64 noundef %120, ptr noundef %121, i64 noundef %122)
  %124 = icmp slt i32 %123, 0
  br i1 %124, label %125, label %126

125:                                              ; preds = %119
  br label %150

126:                                              ; preds = %119
  %127 = load i32, ptr %7, align 4, !tbaa !10
  %128 = and i32 %127, 1
  %129 = icmp ne i32 %128, 0
  br i1 %129, label %130, label %131

130:                                              ; preds = %126
  store i32 1, ptr %11, align 4, !tbaa !10
  br label %132

131:                                              ; preds = %126
  store i32 0, ptr %11, align 4, !tbaa !10
  br label %132

132:                                              ; preds = %131, %130
  %133 = getelementptr inbounds [64 x i8], ptr %12, i64 0, i64 0
  %134 = load i64, ptr @H5LTopen_file_image.file_name_counter, align 8, !tbaa !3
  %135 = add nsw i64 %134, 1
  store i64 %135, ptr @H5LTopen_file_image.file_name_counter, align 8, !tbaa !3
  %136 = call i32 (ptr, i64, ptr, ...) @snprintf(ptr noundef %133, i64 noundef 63, ptr noundef @.str, i64 noundef %134) #11
  %137 = getelementptr inbounds [64 x i8], ptr %12, i64 0, i64 0
  %138 = load i32, ptr %11, align 4, !tbaa !10
  %139 = load i64, ptr %9, align 8, !tbaa !3
  %140 = call i64 @H5Fopen(ptr noundef %137, i32 noundef %138, i64 noundef %139)
  store i64 %140, ptr %10, align 8, !tbaa !3
  %141 = icmp slt i64 %140, 0
  br i1 %141, label %142, label %143

142:                                              ; preds = %132
  br label %150

143:                                              ; preds = %132
  %144 = load i64, ptr %9, align 8, !tbaa !3
  %145 = call i32 @H5Pclose(i64 noundef %144)
  %146 = icmp slt i32 %145, 0
  br i1 %146, label %147, label %148

147:                                              ; preds = %143
  br label %150

148:                                              ; preds = %143
  %149 = load i64, ptr %10, align 8, !tbaa !3
  store i64 %149, ptr %4, align 8
  store i32 1, ptr %17, align 4
  br label %176

150:                                              ; preds = %147, %142, %125, %115, %85, %77, %55, %32, %27, %23
  call void @llvm.lifetime.start.p0(i64 4, ptr %18) #11
  call void @llvm.lifetime.start.p0(i64 8, ptr %19) #11
  call void @llvm.lifetime.start.p0(i64 8, ptr %20) #11
  %151 = call i32 @H5Eauto_is_v2(i64 noundef 0, ptr noundef %18)
  %152 = load i32, ptr %18, align 4, !tbaa !10
  %153 = icmp ne i32 %152, 0
  br i1 %153, label %154, label %157

154:                                              ; preds = %150
  %155 = call i32 @H5Eget_auto2(i64 noundef 0, ptr noundef %19, ptr noundef %20)
  %156 = call i32 @H5Eset_auto2(i64 noundef 0, ptr noundef null, ptr noundef null)
  br label %160

157:                                              ; preds = %150
  %158 = call i32 @H5Eget_auto1(ptr noundef %19, ptr noundef %20)
  %159 = call i32 @H5Eset_auto1(ptr noundef null, ptr noundef null)
  br label %160

160:                                              ; preds = %157, %154
  %161 = load i64, ptr %9, align 8, !tbaa !3
  %162 = call i32 @H5Pclose(i64 noundef %161)
  %163 = load i64, ptr %10, align 8, !tbaa !3
  %164 = call i32 @H5Fclose(i64 noundef %163)
  %165 = load i32, ptr %18, align 4, !tbaa !10
  %166 = icmp ne i32 %165, 0
  br i1 %166, label %167, label %171

167:                                              ; preds = %160
  %168 = load ptr, ptr %19, align 8, !tbaa !15
  %169 = load ptr, ptr %20, align 8, !tbaa !14
  %170 = call i32 @H5Eset_auto2(i64 noundef 0, ptr noundef %168, ptr noundef %169)
  br label %175

171:                                              ; preds = %160
  %172 = load ptr, ptr %19, align 8, !tbaa !15
  %173 = load ptr, ptr %20, align 8, !tbaa !14
  %174 = call i32 @H5Eset_auto1(ptr noundef %172, ptr noundef %173)
  br label %175

175:                                              ; preds = %171, %167
  call void @llvm.lifetime.end.p0(i64 8, ptr %20) #11
  call void @llvm.lifetime.end.p0(i64 8, ptr %19) #11
  call void @llvm.lifetime.end.p0(i64 4, ptr %18) #11
  store i64 -1, ptr %4, align 8
  store i32 1, ptr %17, align 4
  br label %176

176:                                              ; preds = %175, %148
  call void @llvm.lifetime.end.p0(i64 56, ptr %16) #11
  call void @llvm.lifetime.end.p0(i64 8, ptr %15) #11
  call void @llvm.lifetime.end.p0(i64 8, ptr %14) #11
  call void @llvm.lifetime.end.p0(i64 8, ptr %13) #11
  call void @llvm.lifetime.end.p0(i64 64, ptr %12) #11
  call void @llvm.lifetime.end.p0(i64 4, ptr %11) #11
  call void @llvm.lifetime.end.p0(i64 8, ptr %10) #11
  call void @llvm.lifetime.end.p0(i64 8, ptr %9) #11
  call void @llvm.lifetime.end.p0(i64 8, ptr %8) #11
  %177 = load i64, ptr %4, align 8
  ret i64 %177
}