; Function Attrs: nounwind uwtable
define range(i64 -1, -9223372036854775808) i64 @H5LTopen_file_image(ptr noundef %0, i64 noundef %1, i32 noundef %2) local_unnamed_addr #0 {
  %4 = alloca [64 x i8], align 16
  %5 = alloca %struct.H5FD_file_image_callbacks_t, align 8
  %6 = alloca i32, align 4
  %7 = alloca %union.anon.0, align 8
  %8 = alloca ptr, align 8
  call void @llvm.lifetime.start.p0(i64 64, ptr nonnull %4) #20
  call void @llvm.lifetime.start.p0(i64 56, ptr nonnull %5) #20
  call void @llvm.memcpy.p0.p0.i64(ptr noundef nonnull align 8 dereferenceable(56) %5, ptr noundef nonnull align 8 dereferenceable(56) @__const.H5LTopen_file_image.callbacks, i64 56, i1 false)
  %9 = icmp ne ptr %0, null
  %10 = icmp ne i64 %1, 0
  %or.cond.not58 = and i1 %9, %10
  %.not = icmp ult i32 %2, 8
  %or.cond54 = and i1 %or.cond.not58, %.not
  br i1 %or.cond54, label %11, label %udata_free.exit

11:                                               ; preds = %3
  %12 = load i8, ptr @H5_libinit_g, align 1, !tbaa !10, !range !12, !noundef !13
  %13 = trunc nuw i8 %12 to i1
  %14 = load i8, ptr @H5_libterm_g, align 1, !range !12
  %15 = trunc nuw i8 %14 to i1
  %16 = select i1 %13, i1 true, i1 %15
  br i1 %16, label %19, label %17, !prof !14

17:                                               ; preds = %11
  %18 = tail call i32 @H5open() #20
  br label %19

19:                                               ; preds = %11, %17
  %20 = load i64, ptr @H5P_CLS_FILE_ACCESS_ID_g, align 8, !tbaa !15
  %21 = tail call i64 @H5Pcreate(i64 noundef %20) #20
  %22 = icmp slt i64 %21, 0
  br i1 %22, label %udata_free.exit, label %23

23:                                               ; preds = %19
  %24 = uitofp i64 %1 to double
  %25 = fmul double %24, 1.000000e-01
  %26 = fptoui double %25 to i64
  %. = tail call i64 @llvm.umax.i64(i64 %26, i64 65536)
  %27 = tail call i32 @H5Pset_fapl_core(i64 noundef %21, i64 noundef %., i1 noundef zeroext false) #20
  %28 = icmp slt i32 %27, 0
  br i1 %28, label %udata_free.exit, label %29

29:                                               ; preds = %23
  %30 = and i32 %2, 2
  %.not50 = icmp eq i32 %30, 0
  br i1 %.not50, label %53, label %31

31:                                               ; preds = %29
  %32 = tail call noalias dereferenceable_or_null(72) ptr @malloc(i64 noundef 72) #22
  %33 = icmp eq ptr %32, null
  br i1 %33, label %udata_free.exit, label %34

34:                                               ; preds = %31
  store ptr %0, ptr %32, align 8, !tbaa !17
  %35 = getelementptr inbounds nuw i8, ptr %32, i64 8
  store i64 %1, ptr %35, align 8, !tbaa !19
  %36 = getelementptr inbounds nuw i8, ptr %32, i64 16
  %37 = getelementptr inbounds nuw i8, ptr %32, i64 40
  %38 = getelementptr inbounds nuw i8, ptr %32, i64 60
  tail call void @llvm.memset.p0.i64(ptr noundef nonnull align 8 dereferenceable(20) %36, i8 0, i64 20, i1 false)
  tail call void @llvm.memset.p0.i64(ptr noundef nonnull align 8 dereferenceable(20) %37, i8 0, i64 20, i1 false)
  store i32 %2, ptr %38, align 4, !tbaa !20
  %39 = getelementptr inbounds nuw i8, ptr %32, i64 64
  store i32 1, ptr %39, align 8, !tbaa !21
  %40 = getelementptr inbounds nuw i8, ptr %5, i64 48
  store ptr %32, ptr %40, align 8, !tbaa !22
  %41 = call i32 @H5Pset_file_image_callbacks(i64 noundef %21, ptr noundef nonnull %5) #20
  %42 = icmp slt i32 %41, 0
  br i1 %42, label %43, label %53

43:                                               ; preds = %34
  %44 = load i32, ptr %38, align 4, !tbaa !20
  %45 = and i32 %44, 2
  %.not.i = icmp eq i32 %45, 0
  br i1 %.not.i, label %udata_free.exit, label %46

46:                                               ; preds = %43
  %47 = load i32, ptr %39, align 8, !tbaa !21
  %48 = icmp eq i32 %47, 0
  br i1 %48, label %udata_free.exit, label %49

49:                                               ; preds = %46
  %50 = add nsw i32 %47, -1
  store i32 %50, ptr %39, align 8, !tbaa !21
  %51 = icmp eq i32 %50, 0
  br i1 %51, label %52, label %udata_free.exit

52:                                               ; preds = %49
  call void @free(ptr noundef nonnull %32) #20
  br label %udata_free.exit

53:                                               ; preds = %34, %29
  %54 = call i32 @H5Pset_file_image(i64 noundef %21, ptr noundef nonnull %0, i64 noundef %1) #20
  %55 = icmp slt i32 %54, 0
  br i1 %55, label %udata_free.exit, label %56

56:                                               ; preds = %53
  %57 = and i32 %2, 1
  %58 = load i64, ptr @H5LTopen_file_image.file_name_counter, align 8, !tbaa !15
  %59 = add nsw i64 %58, 1
  store i64 %59, ptr @H5LTopen_file_image.file_name_counter, align 8, !tbaa !15
  %60 = call i32 (ptr, i64, ptr, ...) @snprintf(ptr noundef nonnull dereferenceable(1) %4, i64 noundef 63, ptr noundef nonnull @.str, i64 noundef %58) #20
  %61 = call i64 @H5Fopen(ptr noundef nonnull %4, i32 noundef %57, i64 noundef %21) #20
  %62 = icmp slt i64 %61, 0
  br i1 %62, label %udata_free.exit, label %63

63:                                               ; preds = %56
  %64 = call i32 @H5Pclose(i64 noundef %21) #20
  %65 = icmp slt i32 %64, 0
  br i1 %65, label %udata_free.exit, label %85

udata_free.exit:                                  ; preds = %52, %49, %46, %43, %63, %56, %53, %31, %23, %19, %3
  %.042 = phi i64 [ -1, %3 ], [ %21, %19 ], [ %21, %23 ], [ %21, %31 ], [ %21, %53 ], [ %21, %56 ], [ %21, %63 ], [ %21, %43 ], [ %21, %46 ], [ %21, %49 ], [ %21, %52 ]
  %.041 = phi i64 [ -1, %3 ], [ -1, %19 ], [ -1, %23 ], [ -1, %31 ], [ -1, %53 ], [ %61, %56 ], [ %61, %63 ], [ -1, %43 ], [ -1, %46 ], [ -1, %49 ], [ -1, %52 ]
  call void @llvm.lifetime.start.p0(i64 4, ptr nonnull %6) #20
  call void @llvm.lifetime.start.p0(i64 8, ptr nonnull %7) #20
  call void @llvm.lifetime.start.p0(i64 8, ptr nonnull %8) #20
  %66 = call i32 @H5Eauto_is_v2(i64 noundef 0, ptr noundef nonnull %6) #20
  %67 = load i32, ptr %6, align 4, !tbaa !3
  %.not52 = icmp eq i32 %67, 0
  br i1 %.not52, label %71, label %68

68:                                               ; preds = %udata_free.exit
  %69 = call i32 @H5Eget_auto2(i64 noundef 0, ptr noundef nonnull %7, ptr noundef nonnull %8) #20
  %70 = call i32 @H5Eset_auto2(i64 noundef 0, ptr noundef null, ptr noundef null) #20
  br label %74

71:                                               ; preds = %udata_free.exit
  %72 = call i32 @H5Eget_auto1(ptr noundef nonnull %7, ptr noundef nonnull %8) #20
  %73 = call i32 @H5Eset_auto1(ptr noundef null, ptr noundef null) #20
  br label %74

74:                                               ; preds = %71, %68
  %75 = call i32 @H5Pclose(i64 noundef %.042) #20
  %76 = call i32 @H5Fclose(i64 noundef %.041) #20
  %77 = load i32, ptr %6, align 4, !tbaa !3
  %.not53 = icmp eq i32 %77, 0
  %78 = load ptr, ptr %7, align 8, !tbaa !7
  %79 = load ptr, ptr %8, align 8, !tbaa !8
  br i1 %.not53, label %82, label %80

80:                                               ; preds = %74
  %81 = call i32 @H5Eset_auto2(i64 noundef 0, ptr noundef %78, ptr noundef %79) #20
  br label %84

82:                                               ; preds = %74
  %83 = call i32 @H5Eset_auto1(ptr noundef %78, ptr noundef %79) #20
  br label %84

84:                                               ; preds = %82, %80
  call void @llvm.lifetime.end.p0(i64 8, ptr nonnull %8) #20
  call void @llvm.lifetime.end.p0(i64 8, ptr nonnull %7) #20
  call void @llvm.lifetime.end.p0(i64 4, ptr nonnull %6) #20
  br label %85

85:                                               ; preds = %63, %84
  %.0 = phi i64 [ -1, %84 ], [ %61, %63 ]
  call void @llvm.lifetime.end.p0(i64 56, ptr nonnull %5) #20
  call void @llvm.lifetime.end.p0(i64 64, ptr nonnull %4) #20
  ret i64 %.0
}